target datalayout = "e-m:e-p270:32:32-p271:32:32-p272:64:64-i64:64-i128:128-f80:128-n8:16:32:64-S128"
target triple = "x86_64-pc-linux-gnu"

%struct._cms_io_handler = type { ptr, ptr, i32, i32, [256 x i8], ptr, ptr, ptr, ptr, ptr }

@.str.26 = private unnamed_addr constant [36 x i8] c"Seek error; probably corrupted file\00", align 1

; Function Attrs: nounwind uwtable
define internal i32 @FileSeek(ptr noundef %0, i32 noundef %1) #0 {
  %3 = alloca i32, align 4
  %4 = alloca ptr, align 8
  %5 = alloca i32, align 4
  store ptr %0, ptr %4, align 8
  store i32 %1, ptr %5, align 4
  %6 = load ptr, ptr %4, align 8
  %7 = getelementptr inbounds %struct._cms_io_handler, ptr %6, i32 0, i32 0
  %8 = load ptr, ptr %7, align 8
  %9 = load i32, ptr %5, align 4
  %10 = zext i32 %9 to i64
  %11 = call i32 @fseek(ptr noundef %8, i64 noundef %10, i32 noundef 0)
  %12 = icmp ne i32 %11, 0
  br i1 %12, label %13, label %17

13:                                               ; preds = %2
  %14 = load ptr, ptr %4, align 8
  %15 = getelementptr inbounds %struct._cms_io_handler, ptr %14, i32 0, i32 1
  %16 = load ptr, ptr %15, align 8
  call void (ptr, i32, ptr, ...) @cmsSignalError(ptr noundef %16, i32 noundef 1, ptr noundef @.str.26)
  store i32 0, ptr %3, align 4
  br label %18

17:                                               ; preds = %2
  store i32 1, ptr %3, align 4
  br label %18

18:                                               ; preds = %17, %13
  %19 = load i32, ptr %3, align 4
  ret i32 %19
}