; Function Attrs: nounwind uwtable
define internal range(i32 0, 2) i32 @FileSeek(ptr nocapture noundef readonly %0, i32 noundef %1) #0 {
  %3 = load ptr, ptr %0, align 8
  %4 = zext i32 %1 to i64
  %5 = tail call i32 @fseek(ptr noundef %3, i64 noundef %4, i32 noundef 0)
  %.not = icmp eq i32 %5, 0
  br i1 %.not, label %9, label %6

6:                                                ; preds = %2
  %7 = getelementptr inbounds i8, ptr %0, i64 8
  %8 = load ptr, ptr %7, align 8
  tail call void (ptr, i32, ptr, ...) @cmsSignalError(ptr noundef %8, i32 noundef 1, ptr noundef nonnull @.str.26) #19
  br label %9

9:                                                ; preds = %2, %6
  %.0 = phi i32 [ 0, %6 ], [ 1, %2 ]
  ret i32 %.0
}